target datalayout = "e-m:e-p270:32:32-p271:32:32-p272:64:64-i64:64-i128:128-f80:128-n8:16:32:64-S128"
target triple = "x86_64-pc-linux-gnu"

%"class.std::__1::ios_base" = type { ptr, i32, i64, i64, i32, i32, ptr, ptr, ptr, ptr, i64, i64, ptr, i64, i64, ptr, i64, i64 }
%"class.std::__1::locale" = type { ptr }

; Function Attrs: mustprogress uwtable
define dso_local void @_ZNSt3__18ios_base16__call_callbacksENS0_5eventE(ptr noundef nonnull align 8 dereferenceable(136) %0, i32 noundef %1) #1 align 2 {
  %3 = alloca ptr, align 8
  %4 = alloca i32, align 4
  %5 = alloca i64, align 8
  store ptr %0, ptr %3, align 8, !tbaa !27
  store i32 %1, ptr %4, align 4, !tbaa !29
  %6 = load ptr, ptr %3, align 8
  call void @llvm.lifetime.start.p0(i64 8, ptr %5) #3
  %7 = getelementptr inbounds nuw %"class.std::__1::ios_base", ptr %6, i32 0, i32 10
  %8 = load i64, ptr %7, align 8, !tbaa !31
  store i64 %8, ptr %5, align 8, !tbaa !37
  br label %9

9:                                                ; preds = %13, %2
  %10 = load i64, ptr %5, align 8, !tbaa !37
  %11 = icmp ne i64 %10, 0
  br i1 %11, label %13, label %12

12:                                               ; preds = %9
  call void @llvm.lifetime.end.p0(i64 8, ptr %5) #3
  br label %27

13:                                               ; preds = %9
  %14 = load i64, ptr %5, align 8, !tbaa !37
  %15 = add i64 %14, -1
  store i64 %15, ptr %5, align 8, !tbaa !37
  %16 = getelementptr inbounds nuw %"class.std::__1::ios_base", ptr %6, i32 0, i32 8
  %17 = load ptr, ptr %16, align 8, !tbaa !38
  %18 = load i64, ptr %5, align 8, !tbaa !37
  %19 = getelementptr inbounds nuw ptr, ptr %17, i64 %18
  %20 = load ptr, ptr %19, align 8, !tbaa !39
  %21 = load i32, ptr %4, align 4, !tbaa !29
  %22 = getelementptr inbounds nuw %"class.std::__1::ios_base", ptr %6, i32 0, i32 9
  %23 = load ptr, ptr %22, align 8, !tbaa !40
  %24 = load i64, ptr %5, align 8, !tbaa !37
  %25 = getelementptr inbounds nuw i32, ptr %23, i64 %24
  %26 = load i32, ptr %25, align 4, !tbaa !9
  call void %20(i32 noundef %21, ptr noundef nonnull align 8 dereferenceable(136) %6, i32 noundef %26)
  br label %9, !llvm.loop !41

27:                                               ; preds = %12
  ret void
}

; Function Attrs: mustprogress uwtable
define dso_local void @_ZNSt3__18ios_base5imbueERKNS_6localeE(ptr dead_on_unwind noalias writable sret(%"class.std::__1::locale") align 8 %0, ptr noundef nonnull align 8 dereferenceable(136) %1, ptr noundef nonnull align 8 dereferenceable(8) %2) #1 align 2 personality ptr @__gxx_personality_v0 {
  %4 = alloca ptr, align 8
  %5 = alloca ptr, align 8
  %6 = alloca ptr, align 8
  %7 = alloca ptr, align 8
  %8 = alloca i1, align 1
  %9 = alloca ptr, align 8
  %10 = alloca i32, align 4
  store ptr %0, ptr %4, align 8
  store ptr %1, ptr %5, align 8, !tbaa !27
  store ptr %2, ptr %6, align 8, !tbaa !43
  %11 = load ptr, ptr %5, align 8
  call void @llvm.lifetime.start.p0(i64 8, ptr %7) #3
  %12 = getelementptr inbounds nuw %"class.std::__1::ios_base", ptr %11, i32 0, i32 7
  store ptr %12, ptr %7, align 8, !tbaa !43
  store i1 false, ptr %8, align 1
  %13 = load ptr, ptr %7, align 8, !tbaa !43
  call void @_ZNSt3__16localeC1ERKS0_(ptr noundef nonnull align 8 dereferenceable(8) %0, ptr noundef nonnull align 8 dereferenceable(8) %13) #3
  %14 = load ptr, ptr %6, align 8, !tbaa !43
  %15 = load ptr, ptr %7, align 8, !tbaa !43
  %16 = call noundef nonnull align 8 dereferenceable(8) ptr @_ZNSt3__16localeaSERKS0_(ptr noundef nonnull align 8 dereferenceable(8) %15, ptr noundef nonnull align 8 dereferenceable(8) %14) #3
  invoke void @_ZNSt3__18ios_base16__call_callbacksENS0_5eventE(ptr noundef nonnull align 8 dereferenceable(136) %11, i32 noundef 1)
          to label %17 unwind label %19

17:                                               ; preds = %3
  store i1 true, ptr %8, align 1
  %18 = load i1, ptr %8, align 1
  br i1 %18, label %24, label %23

19:                                               ; preds = %3
  %20 = landingpad { ptr, i32 }
          cleanup
  %21 = extractvalue { ptr, i32 } %20, 0
  store ptr %21, ptr %9, align 8
  %22 = extractvalue { ptr, i32 } %20, 1
  store i32 %22, ptr %10, align 4
  call void @_ZNSt3__16localeD1Ev(ptr noundef nonnull align 8 dereferenceable(8) %0) #3
  call void @llvm.lifetime.end.p0(i64 8, ptr %7) #3
  br label %25

23:                                               ; preds = %17
  call void @_ZNSt3__16localeD1Ev(ptr noundef nonnull align 8 dereferenceable(8) %0) #3
  br label %24

24:                                               ; preds = %23, %17
  call void @llvm.lifetime.end.p0(i64 8, ptr %7) #3
  ret void

25:                                               ; preds = %19
  %26 = load ptr, ptr %9, align 8
  %27 = load i32, ptr %10, align 4
  %28 = insertvalue { ptr, i32 } poison, ptr %26, 0
  %29 = insertvalue { ptr, i32 } %28, i32 %27, 1
  resume { ptr, i32 } %29
}