; Function Attrs: mustprogress uwtable
define dso_local void @_ZNSt3__18ios_base5imbueERKNS_6localeE(ptr dead_on_unwind noalias nonnull writable sret(%"class.std::__1::locale") align 8 %0, ptr noundef nonnull align 8 dereferenceable(136) %1, ptr noundef nonnull align 8 dereferenceable(8) %2) local_unnamed_addr #1 align 2 personality ptr @__gxx_personality_v0 {
  %4 = getelementptr inbounds nuw i8, ptr %1, i64 48
  tail call void @_ZNSt3__16localeC1ERKS0_(ptr noundef nonnull align 8 dereferenceable(8) %0, ptr noundef nonnull align 8 dereferenceable(8) %4) #25
  %5 = tail call noundef nonnull align 8 dereferenceable(8) ptr @_ZNSt3__16localeaSERKS0_(ptr noundef nonnull align 8 dereferenceable(8) %4, ptr noundef nonnull align 8 dereferenceable(8) %2) #25
  %6 = getelementptr inbounds nuw i8, ptr %1, i64 72
  %7 = load i64, ptr %6, align 8, !tbaa !15
  %.not5.i = icmp eq i64 %7, 0
  br i1 %.not5.i, label %_ZNSt3__18ios_base16__call_callbacksENS0_5eventE.exit, label %.lr.ph.i

.lr.ph.i:                                         ; preds = %3
  %8 = getelementptr inbounds nuw i8, ptr %1, i64 56
  %9 = getelementptr inbounds nuw i8, ptr %1, i64 64
  br label %10

10:                                               ; preds = %.noexc, %.lr.ph.i
  %.06.i = phi i64 [ %7, %.lr.ph.i ], [ %11, %.noexc ]
  %11 = add i64 %.06.i, -1
  %12 = load ptr, ptr %8, align 8, !tbaa !21
  %13 = getelementptr inbounds nuw ptr, ptr %12, i64 %11
  %14 = load ptr, ptr %13, align 8, !tbaa !22
  %15 = load ptr, ptr %9, align 8, !tbaa !23
  %16 = getelementptr inbounds nuw i32, ptr %15, i64 %11
  %17 = load i32, ptr %16, align 4, !tbaa !8
  invoke void %14(i32 noundef 1, ptr noundef nonnull align 8 dereferenceable(136) %1, i32 noundef %17)
          to label %.noexc unwind label %18

.noexc:                                           ; preds = %10
  %.not.i = icmp eq i64 %11, 0
  br i1 %.not.i, label %_ZNSt3__18ios_base16__call_callbacksENS0_5eventE.exit, label %10, !llvm.loop !24

18:                                               ; preds = %10
  %19 = landingpad { ptr, i32 }
          cleanup
  tail call void @_ZNSt3__16localeD1Ev(ptr noundef nonnull align 8 dereferenceable(8) %0) #25
  resume { ptr, i32 } %19

_ZNSt3__18ios_base16__call_callbacksENS0_5eventE.exit: ; preds = %.noexc, %3
  ret void
}